; Function Attrs: nofree norecurse nosync nounwind memory(readwrite, inaccessiblemem: none) uwtable
define internal fastcc void @slide_hash(ptr noundef readonly captures(none) %0) unnamed_addr #6 {
  %2 = getelementptr inbounds nuw i8, ptr %0, i64 80
  %3 = load i32, ptr %2, align 8, !tbaa !30
  %4 = getelementptr inbounds nuw i8, ptr %0, i64 132
  %5 = load i32, ptr %4, align 4, !tbaa !33
  %6 = getelementptr inbounds nuw i8, ptr %0, i64 120
  %7 = load ptr, ptr %6, align 8, !tbaa !38
  %8 = zext i32 %5 to i64
  %9 = getelementptr inbounds nuw i16, ptr %7, i64 %8
  br label %10

10:                                               ; preds = %10, %1
  %.020 = phi ptr [ %9, %1 ], [ %11, %10 ]
  %.0 = phi i32 [ %5, %1 ], [ %16, %10 ]
  %11 = getelementptr inbounds i8, ptr %.020, i64 -2
  %12 = load i16, ptr %11, align 2, !tbaa !50
  %13 = zext i16 %12 to i32
  %14 = tail call i32 @llvm.usub.sat.i32(i32 %13, i32 %3)
  %15 = trunc nuw i32 %14 to i16
  store i16 %15, ptr %11, align 2, !tbaa !50
  %16 = add i32 %.0, -1
  %.not = icmp eq i32 %16, 0
  br i1 %.not, label %17, label %10, !llvm.loop !75

17:                                               ; preds = %10
  %18 = getelementptr inbounds nuw i8, ptr %0, i64 112
  %19 = load ptr, ptr %18, align 8, !tbaa !37
  %20 = zext i32 %3 to i64
  %21 = getelementptr inbounds nuw i16, ptr %19, i64 %20
  br label %22

22:                                               ; preds = %22, %17
  %.121 = phi ptr [ %21, %17 ], [ %23, %22 ]
  %.1 = phi i32 [ %3, %17 ], [ %28, %22 ]
  %23 = getelementptr inbounds i8, ptr %.121, i64 -2
  %24 = load i16, ptr %23, align 2, !tbaa !50
  %25 = zext i16 %24 to i32
  %26 = tail call i32 @llvm.usub.sat.i32(i32 %25, i32 %3)
  %27 = trunc nuw i32 %26 to i16
  store i16 %27, ptr %23, align 2, !tbaa !50
  %28 = add i32 %.1, -1
  %.not23 = icmp eq i32 %28, 0
  br i1 %.not23, label %29, label %22, !llvm.loop !76

29:                                               ; preds = %22
  ret void
}